target datalayout = "e-m:e-p270:32:32-p271:32:32-p272:64:64-i64:64-i128:128-f80:128-n8:16:32:64-S128"
target triple = "x86_64-pc-linux-gnu"

%struct.__va_list_tag = type { i32, i32, ptr, ptr }

@hf_mswsp_lcid = internal global i32 0, align 4
@.str.83 = private unnamed_addr constant [5 x i8] c"lcid\00", align 1
@hf_mswsp_lcid_sortid = internal global i32 0, align 4
@hf_mswsp_lcid_langid = internal global i32 0, align 4
@hf_mswsp_cscort_column = internal global i32 0, align 4
@hf_mswsp_cscort_order = internal global i32 0, align 4
@hf_mswsp_cscort_individual = internal global i32 0, align 4
@ett_CSort = internal global i32 0, align 4
@ett_LCID = internal global i32 0, align 4
@.str.1317 = private unnamed_addr constant [9 x i8] c"%s: 0x%x\00", align 1

; Function Attrs: null_pointer_is_valid sspstrong uwtable
define internal i32 @parse_lcid(ptr noundef %0, i32 noundef %1, ptr noundef %2, ptr noundef %3) #0 {
  %5 = alloca ptr, align 8
  %6 = alloca i32, align 4
  %7 = alloca ptr, align 8
  %8 = alloca ptr, align 8
  %9 = alloca ptr, align 8
  %10 = alloca ptr, align 8
  %11 = alloca i32, align 4
  store ptr %0, ptr %5, align 8
  store i32 %1, ptr %6, align 4
  store ptr %2, ptr %7, align 8
  store ptr %3, ptr %8, align 8
  call void @llvm.lifetime.start.p0(i64 8, ptr %9) #11
  call void @llvm.lifetime.start.p0(i64 8, ptr %10) #11
  call void @llvm.lifetime.start.p0(i64 4, ptr %11) #11
  %12 = load ptr, ptr %5, align 8
  %13 = load i32, ptr %6, align 4
  %14 = call i32 @tvb_get_letohl(ptr noundef %12, i32 noundef %13)
  store i32 %14, ptr %11, align 4
  %15 = load ptr, ptr %7, align 8
  %16 = load i32, ptr @hf_mswsp_lcid, align 4
  %17 = load ptr, ptr %5, align 8
  %18 = load i32, ptr %6, align 4
  %19 = load i32, ptr %11, align 4
  %20 = load ptr, ptr %8, align 8
  %21 = load i32, ptr %11, align 4
  %22 = call ptr (ptr, i32, ptr, i32, i32, i32, ptr, ...) @proto_tree_add_uint_format(ptr noundef %15, i32 noundef %16, ptr noundef %17, i32 noundef %18, i32 noundef 4, i32 noundef %19, ptr noundef @.str.1317, ptr noundef %20, i32 noundef %21)
  store ptr %22, ptr %9, align 8
  %23 = load ptr, ptr %9, align 8
  %24 = load i32, ptr @ett_LCID, align 4
  %25 = call ptr @proto_item_add_subtree(ptr noundef %23, i32 noundef %24)
  store ptr %25, ptr %10, align 8
  %26 = load ptr, ptr %10, align 8
  %27 = load i32, ptr @hf_mswsp_lcid_langid, align 4
  %28 = load ptr, ptr %5, align 8
  %29 = load i32, ptr %6, align 4
  %30 = add i32 %29, 2
  %31 = load i32, ptr %11, align 4
  %32 = call ptr @proto_tree_add_uint(ptr noundef %26, i32 noundef %27, ptr noundef %28, i32 noundef %30, i32 noundef 2, i32 noundef %31)
  %33 = load ptr, ptr %10, align 8
  %34 = load i32, ptr @hf_mswsp_lcid_sortid, align 4
  %35 = load ptr, ptr %5, align 8
  %36 = load i32, ptr %6, align 4
  %37 = add i32 %36, 1
  %38 = load i32, ptr %11, align 4
  %39 = lshr i32 %38, 16
  %40 = and i32 %39, 15
  %41 = call ptr @proto_tree_add_uint(ptr noundef %33, i32 noundef %34, ptr noundef %35, i32 noundef %37, i32 noundef 1, i32 noundef %40)
  %42 = load i32, ptr %6, align 4
  %43 = add i32 %42, 4
  store i32 %43, ptr %6, align 4
  %44 = load i32, ptr %6, align 4
  call void @llvm.lifetime.end.p0(i64 4, ptr %11) #11
  call void @llvm.lifetime.end.p0(i64 8, ptr %10) #11
  call void @llvm.lifetime.end.p0(i64 8, ptr %9) #11
  ret i32 %44
}

; Function Attrs: null_pointer_is_valid sspstrong uwtable
define internal i32 @parse_CSort(ptr noundef %0, i32 noundef %1, ptr noundef %2, ptr noundef %3, ptr noundef %4, ...) #0 {
  %6 = alloca ptr, align 8
  %7 = alloca i32, align 4
  %8 = alloca ptr, align 8
  %9 = alloca ptr, align 8
  %10 = alloca ptr, align 8
  %11 = alloca i32, align 4
  %12 = alloca i32, align 4
  %13 = alloca i32, align 4
  %14 = alloca ptr, align 8
  %15 = alloca ptr, align 8
  %16 = alloca ptr, align 8
  %17 = alloca [1 x %struct.__va_list_tag], align 16
  store ptr %0, ptr %6, align 8
  store i32 %1, ptr %7, align 4
  store ptr %2, ptr %8, align 8
  store ptr %3, ptr %9, align 8
  store ptr %4, ptr %10, align 8
  call void @llvm.lifetime.start.p0(i64 4, ptr %11) #11
  call void @llvm.lifetime.start.p0(i64 4, ptr %12) #11
  call void @llvm.lifetime.start.p0(i64 4, ptr %13) #11
  call void @llvm.lifetime.start.p0(i64 8, ptr %14) #11
  call void @llvm.lifetime.start.p0(i64 8, ptr %15) #11
  call void @llvm.lifetime.start.p0(i64 8, ptr %16) #11
  call void @llvm.lifetime.start.p0(i64 24, ptr %17) #11
  %18 = getelementptr inbounds [1 x %struct.__va_list_tag], ptr %17, i64 0, i64 0
  call void @llvm.va_start.p0(ptr %18)
  %19 = call ptr @wmem_packet_scope()
  %20 = load ptr, ptr %10, align 8
  %21 = getelementptr inbounds [1 x %struct.__va_list_tag], ptr %17, i64 0, i64 0
  %22 = call noalias ptr @wmem_strdup_vprintf(ptr noundef %19, ptr noundef %20, ptr noundef %21)
  store ptr %22, ptr %16, align 8
  %23 = getelementptr inbounds [1 x %struct.__va_list_tag], ptr %17, i64 0, i64 0
  call void @llvm.va_end.p0(ptr %23)
  %24 = load ptr, ptr %8, align 8
  %25 = load ptr, ptr %6, align 8
  %26 = load i32, ptr %7, align 4
  %27 = load i32, ptr @ett_CSort, align 4
  %28 = load ptr, ptr %16, align 8
  %29 = call ptr @proto_tree_add_subtree(ptr noundef %24, ptr noundef %25, i32 noundef %26, i32 noundef 0, i32 noundef %27, ptr noundef %14, ptr noundef %28)
  store ptr %29, ptr %15, align 8
  %30 = load ptr, ptr %6, align 8
  %31 = load i32, ptr %7, align 4
  %32 = call i32 @tvb_get_letohl(ptr noundef %30, i32 noundef %31)
  store i32 %32, ptr %11, align 4
  %33 = load ptr, ptr %15, align 8
  %34 = load i32, ptr @hf_mswsp_cscort_column, align 4
  %35 = load ptr, ptr %6, align 8
  %36 = load i32, ptr %7, align 4
  %37 = load i32, ptr %11, align 4
  %38 = call ptr @proto_tree_add_uint(ptr noundef %33, i32 noundef %34, ptr noundef %35, i32 noundef %36, i32 noundef 4, i32 noundef %37)
  %39 = load i32, ptr %7, align 4
  %40 = add i32 %39, 4
  store i32 %40, ptr %7, align 4
  %41 = load ptr, ptr %6, align 8
  %42 = load i32, ptr %7, align 4
  %43 = call i32 @tvb_get_letohl(ptr noundef %41, i32 noundef %42)
  store i32 %43, ptr %12, align 4
  %44 = load ptr, ptr %15, align 8
  %45 = load i32, ptr @hf_mswsp_cscort_order, align 4
  %46 = load ptr, ptr %6, align 8
  %47 = load i32, ptr %7, align 4
  %48 = load i32, ptr %12, align 4
  %49 = call ptr @proto_tree_add_uint(ptr noundef %44, i32 noundef %45, ptr noundef %46, i32 noundef %47, i32 noundef 4, i32 noundef %48)
  %50 = load i32, ptr %7, align 4
  %51 = add i32 %50, 4
  store i32 %51, ptr %7, align 4
  %52 = load ptr, ptr %6, align 8
  %53 = load i32, ptr %7, align 4
  %54 = call i32 @tvb_get_letohl(ptr noundef %52, i32 noundef %53)
  store i32 %54, ptr %13, align 4
  %55 = load ptr, ptr %15, align 8
  %56 = load i32, ptr @hf_mswsp_cscort_individual, align 4
  %57 = load ptr, ptr %6, align 8
  %58 = load i32, ptr %7, align 4
  %59 = load i32, ptr %13, align 4
  %60 = call ptr @proto_tree_add_uint(ptr noundef %55, i32 noundef %56, ptr noundef %57, i32 noundef %58, i32 noundef 4, i32 noundef %59)
  %61 = load i32, ptr %7, align 4
  %62 = add i32 %61, 4
  store i32 %62, ptr %7, align 4
  %63 = load ptr, ptr %6, align 8
  %64 = load i32, ptr %7, align 4
  %65 = load ptr, ptr %15, align 8
  %66 = call i32 @parse_lcid(ptr noundef %63, i32 noundef %64, ptr noundef %65, ptr noundef @.str.83)
  store i32 %66, ptr %7, align 4
  %67 = load ptr, ptr %14, align 8
  %68 = load ptr, ptr %6, align 8
  %69 = load i32, ptr %7, align 4
  call void @proto_item_set_end(ptr noundef %67, ptr noundef %68, i32 noundef %69)
  %70 = load i32, ptr %7, align 4
  call void @llvm.lifetime.end.p0(i64 24, ptr %17) #11
  call void @llvm.lifetime.end.p0(i64 8, ptr %16) #11
  call void @llvm.lifetime.end.p0(i64 8, ptr %15) #11
  call void @llvm.lifetime.end.p0(i64 8, ptr %14) #11
  call void @llvm.lifetime.end.p0(i64 4, ptr %13) #11
  call void @llvm.lifetime.end.p0(i64 4, ptr %12) #11
  call void @llvm.lifetime.end.p0(i64 4, ptr %11) #11
  ret i32 %70
}