; Function Attrs: null_pointer_is_valid sspstrong uwtable
define internal noundef i32 @parse_CSort(ptr noundef %0, i32 noundef %1, ptr noundef %2, ptr readnone captures(none) %3, ptr noundef %4, ...) unnamed_addr #0 {
  %6 = alloca ptr, align 8
  %7 = alloca [1 x %struct.__va_list_tag], align 16
  call void @llvm.lifetime.start.p0(i64 8, ptr nonnull %6) #11
  call void @llvm.lifetime.start.p0(i64 24, ptr nonnull %7) #11
  call void @llvm.va_start.p0(ptr nonnull %7)
  %8 = call ptr @wmem_packet_scope()
  %9 = call noalias ptr @wmem_strdup_vprintf(ptr noundef %8, ptr noundef %4, ptr noundef nonnull %7)
  call void @llvm.va_end.p0(ptr nonnull %7)
  %10 = load i32, ptr @ett_CSort, align 4
  %11 = call ptr @proto_tree_add_subtree(ptr noundef %2, ptr noundef %0, i32 noundef %1, i32 noundef 0, i32 noundef %10, ptr noundef nonnull %6, ptr noundef %9)
  %12 = call i32 @tvb_get_letohl(ptr noundef %0, i32 noundef %1)
  %13 = load i32, ptr @hf_mswsp_cscort_column, align 4
  %14 = call ptr @proto_tree_add_uint(ptr noundef %11, i32 noundef %13, ptr noundef %0, i32 noundef %1, i32 noundef 4, i32 noundef %12)
  %15 = add i32 %1, 4
  %16 = call i32 @tvb_get_letohl(ptr noundef %0, i32 noundef %15)
  %17 = load i32, ptr @hf_mswsp_cscort_order, align 4
  %18 = call ptr @proto_tree_add_uint(ptr noundef %11, i32 noundef %17, ptr noundef %0, i32 noundef %15, i32 noundef 4, i32 noundef %16)
  %19 = add i32 %1, 8
  %20 = call i32 @tvb_get_letohl(ptr noundef %0, i32 noundef %19)
  %21 = load i32, ptr @hf_mswsp_cscort_individual, align 4
  %22 = call ptr @proto_tree_add_uint(ptr noundef %11, i32 noundef %21, ptr noundef %0, i32 noundef %19, i32 noundef 4, i32 noundef %20)
  %23 = add i32 %1, 12
  %24 = call i32 @tvb_get_letohl(ptr noundef %0, i32 noundef %23)
  %25 = load i32, ptr @hf_mswsp_lcid, align 4
  %26 = call ptr (ptr, i32, ptr, i32, i32, i32, ptr, ...) @proto_tree_add_uint_format(ptr noundef %11, i32 noundef %25, ptr noundef %0, i32 noundef %23, i32 noundef 4, i32 noundef %24, ptr noundef nonnull @.str.1317, ptr noundef nonnull @.str.83, i32 noundef %24)
  %27 = load i32, ptr @ett_LCID, align 4
  %28 = call ptr @proto_item_add_subtree(ptr noundef %26, i32 noundef %27)
  %29 = load i32, ptr @hf_mswsp_lcid_langid, align 4
  %30 = add i32 %1, 14
  %31 = call ptr @proto_tree_add_uint(ptr noundef %28, i32 noundef %29, ptr noundef %0, i32 noundef %30, i32 noundef 2, i32 noundef %24)
  %32 = load i32, ptr @hf_mswsp_lcid_sortid, align 4
  %33 = add i32 %1, 13
  %34 = lshr i32 %24, 16
  %35 = and i32 %34, 15
  %36 = call ptr @proto_tree_add_uint(ptr noundef %28, i32 noundef %32, ptr noundef %0, i32 noundef %33, i32 noundef 1, i32 noundef %35)
  %37 = add i32 %1, 16
  %38 = load ptr, ptr %6, align 8
  call void @proto_item_set_end(ptr noundef %38, ptr noundef %0, i32 noundef %37)
  call void @llvm.lifetime.end.p0(i64 24, ptr nonnull %7) #11
  call void @llvm.lifetime.end.p0(i64 8, ptr nonnull %6) #11
  ret i32 %37
}